target datalayout = "e-m:e-p270:32:32-p271:32:32-p272:64:64-i64:64-i128:128-f80:128-n8:16:32:64-S128"
target triple = "x86_64-pc-linux-gnu"

%union.bio_addr_st = type { %struct.sockaddr_in6, [84 x i8] }
%struct.sockaddr_in6 = type { i16, i16, i32, %struct.in6_addr, i32 }
%struct.in6_addr = type { %union.anon }
%union.anon = type { [4 x i32] }

@.str = private unnamed_addr constant [34 x i8] c"../openssl/crypto/bio/bio_sock2.c\00", align 1
@__func__.BIO_accept_ex = private unnamed_addr constant [14 x i8] c"BIO_accept_ex\00", align 1
@.str.7 = private unnamed_addr constant [17 x i8] c"calling accept()\00", align 1

; Function Attrs: nounwind uwtable
define i32 @BIO_accept_ex(i32 noundef %0, ptr noundef %1, i32 noundef %2) #0 {
  %4 = alloca i32, align 4
  %5 = alloca i32, align 4
  %6 = alloca ptr, align 8
  %7 = alloca i32, align 4
  %8 = alloca i32, align 4
  %9 = alloca i32, align 4
  %10 = alloca %union.bio_addr_st, align 4
  %11 = alloca ptr, align 8
  %12 = alloca i32, align 4
  store i32 %0, ptr %5, align 4, !tbaa !3
  store ptr %1, ptr %6, align 8, !tbaa !7
  store i32 %2, ptr %7, align 4, !tbaa !3
  call void @llvm.lifetime.start.p0(i64 4, ptr %8) #5
  call void @llvm.lifetime.start.p0(i64 4, ptr %9) #5
  call void @llvm.lifetime.start.p0(i64 112, ptr %10) #5
  call void @llvm.lifetime.start.p0(i64 8, ptr %11) #5
  %13 = load ptr, ptr %6, align 8, !tbaa !7
  %14 = icmp eq ptr %13, null
  br i1 %14, label %15, label %16

15:                                               ; preds = %3
  br label %18

16:                                               ; preds = %3
  %17 = load ptr, ptr %6, align 8, !tbaa !7
  br label %18

18:                                               ; preds = %16, %15
  %19 = phi ptr [ %10, %15 ], [ %17, %16 ]
  store ptr %19, ptr %11, align 8, !tbaa !7
  store i32 112, ptr %8, align 4, !tbaa !3
  %20 = load i32, ptr %5, align 4, !tbaa !3
  %21 = load ptr, ptr %11, align 8, !tbaa !7
  %22 = call ptr @BIO_ADDR_sockaddr_noconst(ptr noundef %21)
  %23 = call i32 @accept(i32 noundef %20, ptr noundef %22, ptr noundef %8)
  store i32 %23, ptr %9, align 4, !tbaa !3
  %24 = load i32, ptr %9, align 4, !tbaa !3
  %25 = icmp eq i32 %24, -1
  br i1 %25, label %26, label %34

26:                                               ; preds = %18
  %27 = load i32, ptr %9, align 4, !tbaa !3
  %28 = call i32 @BIO_sock_should_retry(i32 noundef %27)
  %29 = icmp ne i32 %28, 0
  br i1 %29, label %33, label %30

30:                                               ; preds = %26
  call void @ERR_new()
  call void @ERR_set_debug(ptr noundef @.str, i32 noundef 428, ptr noundef @__func__.BIO_accept_ex)
  %31 = call ptr @__errno_location() #6
  %32 = load i32, ptr %31, align 4, !tbaa !3
  call void (i32, i32, ptr, ...) @ERR_set_error(i32 noundef 2, i32 noundef %32, ptr noundef @.str.7)
  call void @ERR_new()
  call void @ERR_set_debug(ptr noundef @.str, i32 noundef 430, ptr noundef @__func__.BIO_accept_ex)
  call void (i32, i32, ptr, ...) @ERR_set_error(i32 noundef 32, i32 noundef 100, ptr noundef null)
  br label %33

33:                                               ; preds = %30, %26
  store i32 -1, ptr %4, align 4
  store i32 1, ptr %12, align 4
  br label %47

34:                                               ; preds = %18
  %35 = load i32, ptr %9, align 4, !tbaa !3
  %36 = load i32, ptr %7, align 4, !tbaa !3
  %37 = and i32 %36, 8
  %38 = icmp ne i32 %37, 0
  %39 = zext i1 %38 to i32
  %40 = call i32 @BIO_socket_nbio(i32 noundef %35, i32 noundef %39)
  %41 = icmp ne i32 %40, 0
  br i1 %41, label %45, label %42

42:                                               ; preds = %34
  %43 = load i32, ptr %9, align 4, !tbaa !3
  %44 = call i32 @close(i32 noundef %43)
  store i32 -1, ptr %4, align 4
  store i32 1, ptr %12, align 4
  br label %47

45:                                               ; preds = %34
  %46 = load i32, ptr %9, align 4, !tbaa !3
  store i32 %46, ptr %4, align 4
  store i32 1, ptr %12, align 4
  br label %47

47:                                               ; preds = %45, %42, %33
  call void @llvm.lifetime.end.p0(i64 8, ptr %11) #5
  call void @llvm.lifetime.end.p0(i64 112, ptr %10) #5
  call void @llvm.lifetime.end.p0(i64 4, ptr %9) #5
  call void @llvm.lifetime.end.p0(i64 4, ptr %8) #5
  %48 = load i32, ptr %4, align 4
  ret i32 %48
}