; Function Attrs: nounwind uwtable
define i32 @BIO_accept_ex(i32 noundef %0, ptr noundef %1, i32 noundef %2) local_unnamed_addr #0 {
  %4 = alloca i32, align 4
  %5 = alloca %union.bio_addr_st, align 4
  call void @llvm.lifetime.start.p0(i64 4, ptr nonnull %4) #5
  call void @llvm.lifetime.start.p0(i64 112, ptr nonnull %5) #5
  %6 = icmp eq ptr %1, null
  %7 = select i1 %6, ptr %5, ptr %1
  store i32 112, ptr %4, align 4, !tbaa !3
  %8 = call ptr @BIO_ADDR_sockaddr_noconst(ptr noundef nonnull %7) #5
  %9 = call i32 @accept(i32 noundef %0, ptr noundef %8, ptr noundef nonnull %4) #5
  %10 = icmp eq i32 %9, -1
  br i1 %10, label %11, label %16

11:                                               ; preds = %3
  %12 = call i32 @BIO_sock_should_retry(i32 noundef -1) #5
  %.not11 = icmp eq i32 %12, 0
  br i1 %.not11, label %13, label %21

13:                                               ; preds = %11
  call void @ERR_new() #5
  call void @ERR_set_debug(ptr noundef nonnull @.str, i32 noundef 428, ptr noundef nonnull @__func__.BIO_accept_ex) #5
  %14 = tail call ptr @__errno_location() #6
  %15 = load i32, ptr %14, align 4, !tbaa !3
  call void (i32, i32, ptr, ...) @ERR_set_error(i32 noundef 2, i32 noundef %15, ptr noundef nonnull @.str.7) #5
  call void @ERR_new() #5
  call void @ERR_set_debug(ptr noundef nonnull @.str, i32 noundef 430, ptr noundef nonnull @__func__.BIO_accept_ex) #5
  call void (i32, i32, ptr, ...) @ERR_set_error(i32 noundef 32, i32 noundef 100, ptr noundef null) #5
  br label %21

16:                                               ; preds = %3
  %17 = lshr i32 %2, 3
  %.lobit = and i32 %17, 1
  %18 = call i32 @BIO_socket_nbio(i32 noundef %9, i32 noundef %.lobit) #5
  %.not = icmp eq i32 %18, 0
  br i1 %.not, label %19, label %21

19:                                               ; preds = %16
  %20 = call i32 @close(i32 noundef %9) #5
  br label %21

21:                                               ; preds = %16, %11, %13, %19
  %.0 = phi i32 [ -1, %19 ], [ -1, %13 ], [ -1, %11 ], [ %9, %16 ]
  call void @llvm.lifetime.end.p0(i64 112, ptr nonnull %5) #5
  call void @llvm.lifetime.end.p0(i64 4, ptr nonnull %4) #5
  ret i32 %.0
}